; Function Attrs: mustprogress uwtable
define noundef i64 @_ZNK3net30QuicMultipathSentPacketManager20GetLargestSentPacketEh(ptr noundef nonnull readonly align 8 captures(none) dereferenceable(40) %0, i8 noundef zeroext %1) unnamed_addr #0 align 2 {
  %3 = tail call noundef ptr @_ZNK3net30QuicMultipathSentPacketManager32MaybeGetSentPacketManagerForPathEh(ptr noundef nonnull align 8 dereferenceable(40) %0, i8 noundef zeroext %1)
  %4 = icmp eq ptr %3, null
  br i1 %4, label %10, label %5

5:                                                ; preds = %2
  %6 = load ptr, ptr %3, align 8, !tbaa !3
  %7 = getelementptr inbounds nuw i8, ptr %6, i64 256
  %8 = load ptr, ptr %7, align 8
  %9 = tail call noundef i64 %8(ptr noundef nonnull align 8 dereferenceable(8) %3, i8 noundef zeroext %1)
  br label %10

10:                                               ; preds = %2, %5
  %.0 = phi i64 [ %9, %5 ], [ 0, %2 ]
  ret i64 %.0
}